target datalayout = "e-m:e-p270:32:32-p271:32:32-p272:64:64-i64:64-i128:128-f80:128-n8:16:32:64-S128"
target triple = "x86_64-pc-linux-gnu"

%struct._zend_executor_globals = type { %struct._zval_struct, %struct._zval_struct, [32 x ptr], ptr, ptr, %struct._zend_array, %struct._zend_array, ptr, i32, i32, ptr, ptr, ptr, ptr, ptr, ptr, i64, ptr, ptr, i32, i32, i64, i32, i32, i32, i8, i8, %struct.zend_atomic_bool_s, %struct.zend_atomic_bool_s, ptr, i64, ptr, ptr, %struct._zend_array, %struct._zend_array, i32, i8, %struct._zval_struct, %struct._zval_struct, %struct._zend_stack, %struct._zend_stack, %struct._zend_stack, ptr, i32, i32, i64, ptr, ptr, ptr, %struct._zend_objects_store, ptr, ptr, ptr, [3 x %struct._zend_op], ptr, i8, i8, i64, i32, i32, ptr, [16 x %struct._HashTableIterator], ptr, %union._zend_function, %struct._zend_op, %struct._zend_array, i64, %struct.zend_get_gc_buffer, ptr, ptr, ptr, i64, i8, i32, ptr, ptr, i64, %struct._zend_call_stack, i64, i64, [6 x ptr] }
%struct.zend_atomic_bool_s = type { i8 }
%struct._zval_struct = type { %union._zend_value, %union.anon, %union.anon.2 }
%union._zend_value = type { i64 }
%union.anon = type { i32 }
%union.anon.2 = type { i32 }
%struct._zend_stack = type { i32, i32, i32, ptr }
%struct._zend_objects_store = type { ptr, i32, i32, i32 }
%struct._HashTableIterator = type { ptr, i32, i32 }
%union._zend_function = type { %struct._zend_op_array }
%struct._zend_op_array = type { i8, [3 x i8], i32, ptr, ptr, ptr, i32, i32, ptr, ptr, ptr, ptr, i32, i32, i32, i32, ptr, ptr, ptr, ptr, ptr, i32, i32, ptr, ptr, ptr, i32, i32, i32, i32, ptr, ptr, [6 x ptr] }
%struct._zend_op = type { ptr, %union._znode_op, %union._znode_op, %union._znode_op, i32, i32, i8, i8, i8, i8 }
%union._znode_op = type { i32 }
%struct._zend_array = type { %struct._zend_refcounted_h, %union.anon.4, i32, %union.anon.6, i32, i32, i32, i32, i64, ptr }
%struct._zend_refcounted_h = type { i32, %union.anon.3 }
%union.anon.3 = type { i32 }
%union.anon.4 = type { i32 }
%union.anon.6 = type { ptr }
%struct.zend_get_gc_buffer = type { ptr, ptr, ptr }
%struct._zend_call_stack = type { ptr, i64 }
%struct._zend_string = type { %struct._zend_refcounted_h, i64, i64, [1 x i8] }
%struct._dom_object = type { ptr, ptr, ptr, %struct._zend_object }
%struct._zend_object = type { %struct._zend_refcounted_h, i32, ptr, ptr, ptr, [1 x %struct._zval_struct] }
%struct._libxml_doc_props = type { ptr, i8, i8, i8, i8, i8, i8, i8 }
%struct._zend_execute_data = type { ptr, ptr, ptr, ptr, %struct._zval_struct, ptr, ptr, ptr, ptr }
%struct._zend_class_entry = type { i8, ptr, %union.anon.8, i32, i32, i32, i32, ptr, ptr, ptr, %struct._zend_array, %struct._zend_array, %struct._zend_array, ptr, ptr, ptr, ptr, ptr, ptr, ptr, ptr, ptr, ptr, ptr, ptr, ptr, ptr, ptr, ptr, ptr, ptr, ptr, %union.anon.9, ptr, ptr, ptr, ptr, i32, i32, %union.anon.10, ptr, ptr, ptr, ptr, i32, ptr, ptr, %union.anon.11 }
%union.anon.8 = type { ptr }
%union.anon.9 = type { ptr }
%union.anon.10 = type { ptr }
%union.anon.11 = type { %struct.anon.12 }
%struct.anon.12 = type { ptr, i32, i32 }
%struct._php_libxml_node_ptr = type { ptr, i32, ptr }

@executor_globals = external global %struct._zend_executor_globals, align 8
@.str.2 = private unnamed_addr constant [18 x i8] c"Couldn't fetch %s\00", align 1
@.str.23 = private unnamed_addr constant [18 x i8] c"must not be empty\00", align 1
@.str.30 = private unnamed_addr constant [2 x i8] c"p\00", align 1

; Function Attrs: nounwind uwtable
define internal ptr @php_dom_obj_from_obj(ptr noundef %0) #0 {
  %2 = alloca ptr, align 8
  store ptr %0, ptr %2, align 8
  %3 = load ptr, ptr %2, align 8
  %4 = getelementptr inbounds i8, ptr %3, i64 -24
  ret ptr %4
}

; Function Attrs: nounwind uwtable
define hidden void @zim_DOMDocument_saveHTMLFile(ptr noundef %0, ptr noundef %1) #0 {
  %3 = alloca ptr, align 8
  %4 = alloca ptr, align 8
  %5 = alloca ptr, align 8
  %6 = alloca ptr, align 8
  %7 = alloca i64, align 8
  %8 = alloca i32, align 4
  %9 = alloca i32, align 4
  %10 = alloca ptr, align 8
  %11 = alloca ptr, align 8
  %12 = alloca ptr, align 8
  %13 = alloca ptr, align 8
  %14 = alloca ptr, align 8
  store ptr %0, ptr %3, align 8
  store ptr %1, ptr %4, align 8
  %15 = load ptr, ptr %3, align 8
  %16 = getelementptr inbounds %struct._zend_execute_data, ptr %15, i32 0, i32 4
  store ptr %16, ptr %5, align 8
  %17 = load ptr, ptr %3, align 8
  %18 = getelementptr inbounds %struct._zend_execute_data, ptr %17, i32 0, i32 4
  %19 = getelementptr inbounds %struct._zval_struct, ptr %18, i32 0, i32 2
  %20 = load i32, ptr %19, align 4
  %21 = call i32 (i32, ptr, ...) @zend_parse_parameters(i32 noundef %20, ptr noundef @.str.30, ptr noundef %11, ptr noundef %7)
  %22 = icmp eq i32 %21, -1
  br i1 %22, label %23, label %28

23:                                               ; preds = %2
  br label %24

24:                                               ; preds = %23
  %25 = load ptr, ptr getelementptr inbounds (%struct._zend_executor_globals, ptr @executor_globals, i32 0, i32 50), align 8
  %26 = icmp ne ptr %25, null
  call void @llvm.assume(i1 %26)
  br label %105

27:                                               ; No predecessors!
  br label %28

28:                                               ; preds = %27, %2
  %29 = load i64, ptr %7, align 8
  %30 = icmp eq i64 %29, 0
  br i1 %30, label %31, label %36

31:                                               ; preds = %28
  call void (i32, ptr, ...) @zend_argument_value_error(i32 noundef 1, ptr noundef @.str.23)
  br label %32

32:                                               ; preds = %31
  %33 = load ptr, ptr getelementptr inbounds (%struct._zend_executor_globals, ptr @executor_globals, i32 0, i32 50), align 8
  %34 = icmp ne ptr %33, null
  call void @llvm.assume(i1 %34)
  br label %105

35:                                               ; No predecessors!
  br label %36

36:                                               ; preds = %35, %28
  %37 = load ptr, ptr %5, align 8
  %38 = getelementptr inbounds %struct._zval_struct, ptr %37, i32 0, i32 0
  %39 = load ptr, ptr %38, align 8
  %40 = call ptr @php_dom_obj_from_obj(ptr noundef %39)
  store ptr %40, ptr %10, align 8
  %41 = load ptr, ptr %10, align 8
  %42 = getelementptr inbounds %struct._dom_object, ptr %41, i32 0, i32 0
  %43 = load ptr, ptr %42, align 8
  %44 = icmp eq ptr %43, null
  %45 = xor i1 %44, true
  %46 = xor i1 %45, true
  %47 = zext i1 %46 to i32
  %48 = sext i32 %47 to i64
  %49 = icmp ne i64 %48, 0
  br i1 %49, label %50, label %63

50:                                               ; preds = %36
  %51 = load ptr, ptr %10, align 8
  %52 = getelementptr inbounds %struct._dom_object, ptr %51, i32 0, i32 3
  %53 = getelementptr inbounds %struct._zend_object, ptr %52, i32 0, i32 2
  %54 = load ptr, ptr %53, align 8
  %55 = getelementptr inbounds %struct._zend_class_entry, ptr %54, i32 0, i32 1
  %56 = load ptr, ptr %55, align 8
  %57 = getelementptr inbounds %struct._zend_string, ptr %56, i32 0, i32 3
  %58 = getelementptr inbounds [1 x i8], ptr %57, i64 0, i64 0
  call void (ptr, ptr, ...) @zend_throw_error(ptr noundef null, ptr noundef @.str.2, ptr noundef %58)
  br label %59

59:                                               ; preds = %50
  %60 = load ptr, ptr getelementptr inbounds (%struct._zend_executor_globals, ptr @executor_globals, i32 0, i32 50), align 8
  %61 = icmp ne ptr %60, null
  call void @llvm.assume(i1 %61)
  br label %105

62:                                               ; No predecessors!
  br label %63

63:                                               ; preds = %62, %36
  %64 = load ptr, ptr %10, align 8
  %65 = getelementptr inbounds %struct._dom_object, ptr %64, i32 0, i32 0
  %66 = load ptr, ptr %65, align 8
  %67 = getelementptr inbounds %struct._php_libxml_node_ptr, ptr %66, i32 0, i32 0
  %68 = load ptr, ptr %67, align 8
  store ptr %68, ptr %6, align 8
  %69 = load ptr, ptr %6, align 8
  %70 = call ptr @htmlGetMetaEncoding(ptr noundef %69)
  store ptr %70, ptr %12, align 8
  %71 = load ptr, ptr %10, align 8
  %72 = getelementptr inbounds %struct._dom_object, ptr %71, i32 0, i32 1
  %73 = load ptr, ptr %72, align 8
  %74 = call ptr @dom_get_doc_props_read_only(ptr noundef %73)
  store ptr %74, ptr %13, align 8
  %75 = load ptr, ptr %13, align 8
  %76 = getelementptr inbounds %struct._libxml_doc_props, ptr %75, i32 0, i32 1
  %77 = load i8, ptr %76, align 8
  %78 = trunc i8 %77 to i1
  %79 = zext i1 %78 to i32
  store i32 %79, ptr %9, align 4
  %80 = load ptr, ptr %11, align 8
  %81 = load ptr, ptr %6, align 8
  %82 = load ptr, ptr %12, align 8
  %83 = load i32, ptr %9, align 4
  %84 = call i32 @htmlSaveFileFormat(ptr noundef %80, ptr noundef %81, ptr noundef %82, i32 noundef %83)
  store i32 %84, ptr %8, align 4
  %85 = load i32, ptr %8, align 4
  %86 = icmp eq i32 %85, -1
  br i1 %86, label %87, label %94

87:                                               ; preds = %63
  br label %88

88:                                               ; preds = %87
  br label %89

89:                                               ; preds = %88
  %90 = load ptr, ptr %4, align 8
  %91 = getelementptr inbounds %struct._zval_struct, ptr %90, i32 0, i32 1
  store i32 2, ptr %91, align 8
  br label %92

92:                                               ; preds = %89
  br label %105

93:                                               ; No predecessors!
  br label %94

94:                                               ; preds = %93, %63
  br label %95

95:                                               ; preds = %94
  br label %96

96:                                               ; preds = %95
  %97 = load ptr, ptr %4, align 8
  store ptr %97, ptr %14, align 8
  %98 = load i32, ptr %8, align 4
  %99 = sext i32 %98 to i64
  %100 = load ptr, ptr %14, align 8
  %101 = getelementptr inbounds %struct._zval_struct, ptr %100, i32 0, i32 0
  store i64 %99, ptr %101, align 8
  %102 = load ptr, ptr %14, align 8
  %103 = getelementptr inbounds %struct._zval_struct, ptr %102, i32 0, i32 1
  store i32 4, ptr %103, align 8
  br label %104

104:                                              ; preds = %96
  br label %105

105:                                              ; preds = %104, %92, %59, %32, %24
  ret void
}