; Function Attrs: nounwind uwtable
define hidden void @zim_DOMDocument_saveHTMLFile(ptr nocapture noundef readonly %0, ptr nocapture noundef writeonly %1) local_unnamed_addr #0 {
  %3 = alloca i64, align 8
  %4 = alloca ptr, align 8
  %5 = getelementptr inbounds i8, ptr %0, i64 32
  %6 = getelementptr inbounds i8, ptr %0, i64 44
  %7 = load i32, ptr %6, align 4
  %8 = call i32 (i32, ptr, ...) @zend_parse_parameters(i32 noundef %7, ptr noundef nonnull @.str.30, ptr noundef nonnull %4, ptr noundef nonnull %3) #10
  %9 = icmp eq i32 %8, -1
  br i1 %9, label %10, label %13

10:                                               ; preds = %2
  %11 = load ptr, ptr getelementptr inbounds (%struct._zend_executor_globals, ptr @executor_globals, i64 0, i32 50), align 8
  %12 = icmp ne ptr %11, null
  call void @llvm.assume(i1 %12)
  br label %50

13:                                               ; preds = %2
  %14 = load i64, ptr %3, align 8
  %15 = icmp eq i64 %14, 0
  br i1 %15, label %16, label %19

16:                                               ; preds = %13
  call void (i32, ptr, ...) @zend_argument_value_error(i32 noundef 1, ptr noundef nonnull @.str.23) #10
  %17 = load ptr, ptr getelementptr inbounds (%struct._zend_executor_globals, ptr @executor_globals, i64 0, i32 50), align 8
  %18 = icmp ne ptr %17, null
  call void @llvm.assume(i1 %18)
  br label %50

19:                                               ; preds = %13
  %20 = load ptr, ptr %5, align 8
  %21 = getelementptr inbounds i8, ptr %20, i64 -24
  %22 = load ptr, ptr %21, align 8
  %23 = icmp eq ptr %22, null
  br i1 %23, label %24, label %32

24:                                               ; preds = %19
  %25 = getelementptr inbounds i8, ptr %20, i64 16
  %26 = load ptr, ptr %25, align 8
  %27 = getelementptr inbounds i8, ptr %26, i64 8
  %28 = load ptr, ptr %27, align 8
  %29 = getelementptr inbounds i8, ptr %28, i64 24
  call void (ptr, ptr, ...) @zend_throw_error(ptr noundef null, ptr noundef nonnull @.str.2, ptr noundef nonnull %29) #10
  %30 = load ptr, ptr getelementptr inbounds (%struct._zend_executor_globals, ptr @executor_globals, i64 0, i32 50), align 8
  %31 = icmp ne ptr %30, null
  call void @llvm.assume(i1 %31)
  br label %50

32:                                               ; preds = %19
  %33 = load ptr, ptr %22, align 8
  %34 = call ptr @htmlGetMetaEncoding(ptr noundef %33) #10
  %35 = getelementptr inbounds i8, ptr %20, i64 -16
  %36 = load ptr, ptr %35, align 8
  %37 = call ptr @dom_get_doc_props_read_only(ptr noundef %36) #10
  %38 = getelementptr inbounds i8, ptr %37, i64 8
  %39 = load i8, ptr %38, align 8
  %40 = and i8 %39, 1
  %41 = zext nneg i8 %40 to i32
  %42 = load ptr, ptr %4, align 8
  %43 = call i32 @htmlSaveFileFormat(ptr noundef %42, ptr noundef %33, ptr noundef %34, i32 noundef %41) #10
  %44 = icmp eq i32 %43, -1
  br i1 %44, label %45, label %47

45:                                               ; preds = %32
  %46 = getelementptr inbounds i8, ptr %1, i64 8
  store i32 2, ptr %46, align 8
  br label %50

47:                                               ; preds = %32
  %48 = sext i32 %43 to i64
  store i64 %48, ptr %1, align 8
  %49 = getelementptr inbounds i8, ptr %1, i64 8
  store i32 4, ptr %49, align 8
  br label %50

50:                                               ; preds = %47, %45, %24, %16, %10
  ret void
}